target datalayout = "e-m:e-p270:32:32-p271:32:32-p272:64:64-i64:64-i128:128-f80:128-n8:16:32:64-S128"
target triple = "x86_64-pc-linux-gnu"

%"struct.google::logging::internal::CrashReason" = type <{ ptr, i32, [4 x i8], ptr, [32 x ptr], i32, [4 x i8] }>
%class.anon = type { ptr, i32, ptr, i64 }
%class.anon.0 = type { ptr }
%class.anon.1 = type { i8 }

@_ZN6googleL12crash_reasonE = internal global %"struct.google::logging::internal::CrashReason" zeroinitializer, align 8
@_ZSt15__once_callable = external thread_local global ptr, align 8
@_ZN6googleL9crash_bufE = internal global [3001 x i8] zeroinitializer, align 16

; Function Attrs: mustprogress uwtable
define internal void @"_ZZN6google8RawLog__ENS_11LogSeverityEPKciS2_zENK3$_0clEv"(ptr noundef nonnull align 8 dereferenceable(32) %0) #0 align 2 {
  %2 = alloca ptr, align 8
  store ptr %0, ptr %2, align 8
  %3 = load ptr, ptr %2, align 8
  %4 = getelementptr inbounds %class.anon, ptr %3, i32 0, i32 0
  %5 = load ptr, ptr %4, align 8
  store ptr %5, ptr @_ZN6googleL12crash_reasonE, align 8
  %6 = getelementptr inbounds %class.anon, ptr %3, i32 0, i32 1
  %7 = load i32, ptr %6, align 8
  store i32 %7, ptr getelementptr inbounds (%"struct.google::logging::internal::CrashReason", ptr @_ZN6googleL12crash_reasonE, i32 0, i32 1), align 8
  %8 = getelementptr inbounds %class.anon, ptr %3, i32 0, i32 2
  %9 = load ptr, ptr %8, align 8
  %10 = getelementptr inbounds %class.anon, ptr %3, i32 0, i32 3
  %11 = load i64, ptr %10, align 8
  call void @llvm.memcpy.p0.p0.i64(ptr align 16 @_ZN6googleL9crash_bufE, ptr align 1 %9, i64 %11, i1 false)
  store ptr @_ZN6googleL9crash_bufE, ptr getelementptr inbounds (%"struct.google::logging::internal::CrashReason", ptr @_ZN6googleL12crash_reasonE, i32 0, i32 3), align 8
  %12 = call noundef i32 @_ZN6google24glog_internal_namespace_13GetStackTraceEPPvii(ptr noundef getelementptr inbounds (%"struct.google::logging::internal::CrashReason", ptr @_ZN6googleL12crash_reasonE, i32 0, i32 4), i32 noundef 32, i32 noundef 1)
  store i32 %12, ptr getelementptr inbounds (%"struct.google::logging::internal::CrashReason", ptr @_ZN6googleL12crash_reasonE, i32 0, i32 5), align 8
  call void @_ZN6google24glog_internal_namespace_14SetCrashReasonEPKNS_7logging8internal11CrashReasonE(ptr noundef @_ZN6googleL12crash_reasonE)
  ret void
}

; Function Attrs: mustprogress uwtable
define internal void @"_ZSt13__invoke_implIvZN6google8RawLog__ENS0_11LogSeverityEPKciS3_zE3$_0JEET_St14__invoke_otherOT0_DpOT1_"(ptr noundef nonnull align 8 dereferenceable(32) %0) #0 {
  %2 = alloca ptr, align 8
  store ptr %0, ptr %2, align 8
  %3 = load ptr, ptr %2, align 8
  call void @"_ZZN6google8RawLog__ENS_11LogSeverityEPKciS2_zENK3$_0clEv"(ptr noundef nonnull align 8 dereferenceable(32) %3)
  ret void
}

; Function Attrs: mustprogress uwtable
define internal void @"_ZSt8__invokeIZN6google8RawLog__ENS0_11LogSeverityEPKciS3_zE3$_0JEENSt15__invoke_resultIT_JDpT0_EE4typeEOS6_DpOS7_"(ptr noundef nonnull align 8 dereferenceable(32) %0) #0 {
  %2 = alloca ptr, align 8
  store ptr %0, ptr %2, align 8
  %3 = load ptr, ptr %2, align 8
  call void @"_ZSt13__invoke_implIvZN6google8RawLog__ENS0_11LogSeverityEPKciS3_zE3$_0JEET_St14__invoke_otherOT0_DpOT1_"(ptr noundef nonnull align 8 dereferenceable(32) %3)
  ret void
}

; Function Attrs: mustprogress uwtable
define internal void @"_ZZSt9call_onceIZN6google8RawLog__ENS0_11LogSeverityEPKciS3_zE3$_0JEEvRSt9once_flagOT_DpOT0_ENKUlvE_clEv"(ptr noundef nonnull align 8 dereferenceable(8) %0) #0 align 2 {
  %2 = alloca ptr, align 8
  store ptr %0, ptr %2, align 8
  %3 = load ptr, ptr %2, align 8
  %4 = getelementptr inbounds %class.anon.0, ptr %3, i32 0, i32 0
  %5 = load ptr, ptr %4, align 8
  call void @"_ZSt8__invokeIZN6google8RawLog__ENS0_11LogSeverityEPKciS3_zE3$_0JEENSt15__invoke_resultIT_JDpT0_EE4typeEOS6_DpOS7_"(ptr noundef nonnull align 8 dereferenceable(32) %5)
  ret void
}

; Function Attrs: mustprogress uwtable
define internal void @"_ZZNSt9once_flag18_Prepare_executionC1IZSt9call_onceIZN6google8RawLog__ENS3_11LogSeverityEPKciS6_zE3$_0JEEvRS_OT_DpOT0_EUlvE_EERS9_ENKUlvE_clEv"(ptr noundef nonnull align 1 dereferenceable(1) %0) #0 align 2 {
  %2 = alloca ptr, align 8
  store ptr %0, ptr %2, align 8
  %3 = call align 8 ptr @llvm.threadlocal.address.p0(ptr align 8 @_ZSt15__once_callable)
  %4 = load ptr, ptr %3, align 8
  call void @"_ZZSt9call_onceIZN6google8RawLog__ENS0_11LogSeverityEPKciS3_zE3$_0JEEvRSt9once_flagOT_DpOT0_ENKUlvE_clEv"(ptr noundef nonnull align 8 dereferenceable(8) %4)
  ret void
}

; Function Attrs: mustprogress uwtable
define internal void @"_ZZNSt9once_flag18_Prepare_executionC1IZSt9call_onceIZN6google8RawLog__ENS3_11LogSeverityEPKciS6_zE3$_0JEEvRS_OT_DpOT0_EUlvE_EERS9_ENUlvE_8__invokeEv"() #0 align 2 {
  %1 = alloca %class.anon.1, align 1
  call void @"_ZZNSt9once_flag18_Prepare_executionC1IZSt9call_onceIZN6google8RawLog__ENS3_11LogSeverityEPKciS6_zE3$_0JEEvRS_OT_DpOT0_EUlvE_EERS9_ENKUlvE_clEv"(ptr noundef nonnull align 1 dereferenceable(1) %1)
  ret void
}