; Function Attrs: mustprogress uwtable
define internal void @"_ZZNSt9once_flag18_Prepare_executionC1IZSt9call_onceIZN6google8RawLog__ENS3_11LogSeverityEPKciS6_zE3$_0JEEvRS_OT_DpOT0_EUlvE_EERS9_ENUlvE_8__invokeEv"() #0 align 2 {
  %1 = tail call align 8 ptr @llvm.threadlocal.address.p0(ptr align 8 @_ZSt15__once_callable)
  %2 = load ptr, ptr %1, align 8
  %.val.i = load ptr, ptr %2, align 8
  %3 = load ptr, ptr %.val.i, align 8
  store ptr %3, ptr @_ZN6googleL12crash_reasonE, align 8
  %4 = getelementptr inbounds i8, ptr %.val.i, i64 8
  %5 = load i32, ptr %4, align 8
  store i32 %5, ptr getelementptr inbounds (%"struct.google::logging::internal::CrashReason", ptr @_ZN6googleL12crash_reasonE, i64 0, i32 1), align 8
  %6 = getelementptr inbounds i8, ptr %.val.i, i64 16
  %7 = load ptr, ptr %6, align 8
  %8 = getelementptr inbounds i8, ptr %.val.i, i64 24
  %9 = load i64, ptr %8, align 8
  tail call void @llvm.memcpy.p0.p0.i64(ptr nonnull align 16 @_ZN6googleL9crash_bufE, ptr align 1 %7, i64 %9, i1 false)
  store ptr @_ZN6googleL9crash_bufE, ptr getelementptr inbounds (%"struct.google::logging::internal::CrashReason", ptr @_ZN6googleL12crash_reasonE, i64 0, i32 3), align 8
  %10 = tail call noundef i32 @_ZN6google24glog_internal_namespace_13GetStackTraceEPPvii(ptr noundef nonnull getelementptr inbounds (%"struct.google::logging::internal::CrashReason", ptr @_ZN6googleL12crash_reasonE, i64 0, i32 4), i32 noundef 32, i32 noundef 1)
  store i32 %10, ptr getelementptr inbounds (%"struct.google::logging::internal::CrashReason", ptr @_ZN6googleL12crash_reasonE, i64 0, i32 5), align 8
  tail call void @_ZN6google24glog_internal_namespace_14SetCrashReasonEPKNS_7logging8internal11CrashReasonE(ptr noundef nonnull @_ZN6googleL12crash_reasonE)
  ret void
}